; ModuleID = 'source-C-CXX/6/333.c'
source_filename = "source-C-CXX/6/333.c"
target datalayout = "e-m:e-p270:32:32-p271:32:32-p272:64:64-i64:64-f80:128-n8:16:32:64-S128"
target triple = "x86_64-pc-linux-gnu"

@.str = private unnamed_addr constant [3 x i8] c"%s\00", align 1

; Function Attrs: nofree nounwind sspstrong uwtable
define dso_local i32 @main() local_unnamed_addr #0 {
  %1 = alloca [100 x i8], align 16
  %2 = alloca [100 x i8], align 16
  %3 = alloca [100 x i8], align 16
  %4 = getelementptr inbounds [100 x i8], [100 x i8]* %3, i64 0, i64 0
  %5 = getelementptr inbounds [100 x i8], [100 x i8]* %1, i64 0, i64 0
  call void @llvm.lifetime.start.p0i8(i64 100, i8* nonnull %5) #6
  %6 = getelementptr inbounds [100 x i8], [100 x i8]* %2, i64 0, i64 0
  call void @llvm.lifetime.start.p0i8(i64 100, i8* nonnull %6) #6
  %7 = getelementptr inbounds [100 x i8], [100 x i8]* %3, i64 0, i64 0
  call void @llvm.lifetime.start.p0i8(i64 100, i8* nonnull %7) #6
  %8 = call i32 (i8*, ...) @__isoc99_scanf(i8* getelementptr inbounds ([3 x i8], [3 x i8]* @.str, i64 0, i64 0), i8* nonnull %5)
  %9 = call i32 (i8*, ...) @__isoc99_scanf(i8* getelementptr inbounds ([3 x i8], [3 x i8]* @.str, i64 0, i64 0), i8* nonnull %6)
  %10 = call i32 (i8*, ...) @__isoc99_scanf(i8* getelementptr inbounds ([3 x i8], [3 x i8]* @.str, i64 0, i64 0), i8* nonnull %7)
  %11 = call i64 @strlen(i8* noundef nonnull %5) #7
  %12 = trunc i64 %11 to i32
  %13 = call i64 @strlen(i8* noundef nonnull %6) #7
  %14 = trunc i64 %13 to i32
  %15 = icmp sgt i32 %12, 0
  br i1 %15, label %16, label %33

16:                                               ; preds = %0
  %17 = and i64 %11, 4294967295
  br label %18

18:                                               ; preds = %16, %30
  %19 = phi i64 [ 0, %16 ], [ %31, %30 ]
  %20 = phi i32 [ 0, %16 ], [ %28, %30 ]
  %21 = getelementptr inbounds [100 x i8], [100 x i8]* %1, i64 0, i64 %19
  %22 = load i8, i8* %21, align 1, !tbaa !5
  %23 = sext i32 %20 to i64
  %24 = getelementptr inbounds [100 x i8], [100 x i8]* %2, i64 0, i64 %23
  %25 = load i8, i8* %24, align 1, !tbaa !5
  %26 = icmp eq i8 %22, %25
  %27 = add nsw i32 %20, 1
  %28 = select i1 %26, i32 %27, i32 0
  %29 = icmp eq i32 %28, %14
  br i1 %29, label %33, label %30

30:                                               ; preds = %18
  %31 = add nuw nsw i64 %19, 1
  %32 = icmp eq i64 %31, %17
  br i1 %32, label %33, label %18, !llvm.loop !8

33:                                               ; preds = %18, %30, %0
  %34 = phi i64 [ 0, %0 ], [ %11, %30 ], [ %19, %18 ]
  %35 = icmp sgt i32 %14, 0
  br i1 %35, label %36, label %44

36:                                               ; preds = %33
  %37 = shl i64 %34, 32
  %38 = ashr exact i64 %37, 32
  %39 = add i64 %13, 4294967295
  %40 = and i64 %39, 4294967295
  %41 = sub nsw i64 %38, %40
  %42 = getelementptr [100 x i8], [100 x i8]* %1, i64 0, i64 %41
  %43 = and i64 %13, 4294967295
  call void @llvm.memcpy.p0i8.p0i8.i64(i8* align 1 %42, i8* nonnull align 16 %4, i64 %43, i1 false)
  br label %44

44:                                               ; preds = %36, %33
  %45 = call i32 @puts(i8* nonnull %5)
  call void @llvm.lifetime.end.p0i8(i64 100, i8* nonnull %7) #6
  call void @llvm.lifetime.end.p0i8(i64 100, i8* nonnull %6) #6
  call void @llvm.lifetime.end.p0i8(i64 100, i8* nonnull %5) #6
  ret i32 0
}

; Function Attrs: argmemonly mustprogress nofree nosync nounwind willreturn
declare void @llvm.lifetime.start.p0i8(i64 immarg, i8* nocapture) #1

; Function Attrs: nofree nounwind
declare noundef i32 @__isoc99_scanf(i8* nocapture noundef readonly, ...) local_unnamed_addr #2

; Function Attrs: argmemonly mustprogress nofree nounwind readonly willreturn
declare i64 @strlen(i8* nocapture) local_unnamed_addr #3

; Function Attrs: argmemonly mustprogress nofree nosync nounwind willreturn
declare void @llvm.lifetime.end.p0i8(i64 immarg, i8* nocapture) #1

; Function Attrs: nofree nounwind
declare noundef i32 @puts(i8* nocapture noundef readonly) local_unnamed_addr #4

; Function Attrs: argmemonly nofree nounwind willreturn
declare void @llvm.memcpy.p0i8.p0i8.i64(i8* noalias nocapture writeonly, i8* noalias nocapture readonly, i64, i1 immarg) #5


!llvm.module.flags = !{!0, !1, !2, !3}
!llvm.ident = !{!4}

!0 = !{i32 1, !"wchar_size", i32 4}
!1 = !{i32 7, !"PIC Level", i32 2}
!2 = !{i32 7, !"PIE Level", i32 2}
!3 = !{i32 7, !"uwtable", i32 1}
!4 = !{!"clang version 13.0.0"}
!5 = !{!6, !6, i64 0}
!6 = !{!"omnipotent char", !7, i64 0}
!7 = !{!"Simple C/C++ TBAA"}
!8 = distinct !{!8, !9}
!9 = !{!"llvm.loop.mustprogress"}
